target datalayout = "e-m:e-p270:32:32-p271:32:32-p272:64:64-i64:64-i128:128-f80:128-n8:16:32:64-S128"
target triple = "x86_64-pc-linux-gnu"

%struct.rb_data_type_struct = type { ptr, %struct.anon, ptr, ptr, i64 }
%struct.anon = type { ptr, ptr, ptr, ptr, [1 x ptr] }
%struct.RTypedData = type { %struct.RBasic, ptr, i64, ptr }
%struct.RBasic = type { i64, i64 }

@ossl_bn_type = internal constant %struct.rb_data_type_struct { ptr @.str.62, %struct.anon { ptr null, ptr @ossl_bn_free, ptr null, ptr null, [1 x ptr] zeroinitializer }, ptr null, ptr null, i64 289 }, align 8
@eBNError = internal global i64 0, align 8
@rb_eRuntimeError = external global i64, align 8
@.str = private unnamed_addr constant [23 x i8] c"BN wasn't initialized!\00", align 1
@.str.71 = private unnamed_addr constant [7 x i8] c"BN_new\00", align 1
@.str.73 = private unnamed_addr constant [14 x i8] c"BN_rand_range\00", align 1

; Function Attrs: nounwind sspstrong uwtable
define internal i64 @ossl_bn_s_rand_range(i64 noundef %0, i64 noundef %1) #0 {
  %3 = alloca i64, align 8
  %4 = alloca i64, align 8
  %5 = alloca ptr, align 8
  %6 = alloca ptr, align 8
  %7 = alloca i64, align 8
  store i64 %0, ptr %3, align 8, !tbaa !11
  store i64 %1, ptr %4, align 8, !tbaa !11
  call void @llvm.lifetime.start.p0(i64 8, ptr %5) #20
  %8 = call ptr @ossl_bn_value_ptr(ptr noundef %4)
  store ptr %8, ptr %5, align 8, !tbaa !6
  call void @llvm.lifetime.start.p0(i64 8, ptr %6) #20
  call void @llvm.lifetime.start.p0(i64 8, ptr %7) #20
  %9 = load i64, ptr %3, align 8, !tbaa !11
  %10 = call i64 @rb_data_typed_object_wrap(i64 noundef %9, ptr noundef null, ptr noundef @ossl_bn_type)
  store i64 %10, ptr %7, align 8, !tbaa !11
  %11 = call ptr @BN_new()
  store ptr %11, ptr %6, align 8, !tbaa !6
  %12 = icmp ne ptr %11, null
  br i1 %12, label %15, label %13

13:                                               ; preds = %2
  %14 = load i64, ptr @eBNError, align 8, !tbaa !11
  call void (i64, ptr, ...) @ossl_raise(i64 noundef %14, ptr noundef @.str.71) #21
  unreachable

15:                                               ; preds = %2
  %16 = load ptr, ptr %6, align 8, !tbaa !6
  %17 = load ptr, ptr %5, align 8, !tbaa !6
  %18 = call i32 @BN_rand_range(ptr noundef %16, ptr noundef %17)
  %19 = icmp sle i32 %18, 0
  br i1 %19, label %20, label %23

20:                                               ; preds = %15
  %21 = load ptr, ptr %6, align 8, !tbaa !6
  call void @BN_free(ptr noundef %21)
  %22 = load i64, ptr @eBNError, align 8, !tbaa !11
  call void (i64, ptr, ...) @ossl_raise(i64 noundef %22, ptr noundef @.str.73) #21
  unreachable

23:                                               ; preds = %15
  br label %24

24:                                               ; preds = %23
  %25 = load ptr, ptr %6, align 8, !tbaa !6
  %26 = icmp ne ptr %25, null
  br i1 %26, label %29, label %27

27:                                               ; preds = %24
  %28 = load i64, ptr @rb_eRuntimeError, align 8, !tbaa !11
  call void (i64, ptr, ...) @ossl_raise(i64 noundef %28, ptr noundef @.str) #21
  unreachable

29:                                               ; preds = %24
  %30 = load ptr, ptr %6, align 8, !tbaa !6
  %31 = load i64, ptr %7, align 8, !tbaa !11
  %32 = inttoptr i64 %31 to ptr
  %33 = getelementptr inbounds nuw %struct.RTypedData, ptr %32, i32 0, i32 3
  store ptr %30, ptr %33, align 8, !tbaa !13
  br label %34

34:                                               ; preds = %29
  br label %35

35:                                               ; preds = %34
  %36 = load i64, ptr %7, align 8, !tbaa !11
  call void @llvm.lifetime.end.p0(i64 8, ptr %7) #20
  call void @llvm.lifetime.end.p0(i64 8, ptr %6) #20
  call void @llvm.lifetime.end.p0(i64 8, ptr %5) #20
  ret i64 %36
}