; Function Attrs: nounwind sspstrong uwtable
define internal i64 @ossl_bn_s_rand_range(i64 noundef %0, i64 noundef %1) #0 {
  %3 = alloca i64, align 8
  store i64 %1, ptr %3, align 8, !tbaa !6
  %4 = call ptr @ossl_bn_value_ptr(ptr noundef nonnull %3)
  %5 = call i64 @rb_data_typed_object_wrap(i64 noundef %0, ptr noundef null, ptr noundef nonnull @ossl_bn_type) #11
  %6 = call ptr @BN_new() #11
  %.not = icmp eq ptr %6, null
  br i1 %.not, label %7, label %9

7:                                                ; preds = %2
  %8 = load i64, ptr @eBNError, align 8, !tbaa !6
  call void (i64, ptr, ...) @ossl_raise(i64 noundef %8, ptr noundef nonnull @.str.71) #12
  unreachable

9:                                                ; preds = %2
  %10 = call i32 @BN_rand_range(ptr noundef nonnull %6, ptr noundef nonnull %4) #11
  %11 = icmp slt i32 %10, 1
  br i1 %11, label %12, label %14

12:                                               ; preds = %9
  call void @BN_free(ptr noundef nonnull %6) #11
  %13 = load i64, ptr @eBNError, align 8, !tbaa !6
  call void (i64, ptr, ...) @ossl_raise(i64 noundef %13, ptr noundef nonnull @.str.73) #12
  unreachable

14:                                               ; preds = %9
  %15 = inttoptr i64 %5 to ptr
  %16 = getelementptr inbounds nuw i8, ptr %15, i64 32
  store ptr %6, ptr %16, align 8, !tbaa !10
  ret i64 %5
}